; Function Attrs: nounwind uwtable
define range(i32 0, 2) i32 @tls_construct_cert_status_body(ptr noundef %0, ptr noundef %1) local_unnamed_addr #1 {
  %3 = getelementptr inbounds nuw i8, ptr %0, i64 2600
  %4 = load i32, ptr %3, align 8, !tbaa !210
  %5 = sext i32 %4 to i64
  %6 = tail call i32 @WPACKET_put_bytes__(ptr noundef %1, i64 noundef %5, i64 noundef 1) #12
  %.not = icmp eq i32 %6, 0
  br i1 %.not, label %13, label %7

7:                                                ; preds = %2
  %8 = getelementptr inbounds nuw i8, ptr %0, i64 2640
  %9 = load ptr, ptr %8, align 8, !tbaa !211
  %10 = getelementptr inbounds nuw i8, ptr %0, i64 2648
  %11 = load i64, ptr %10, align 8, !tbaa !212
  %12 = tail call i32 @WPACKET_sub_memcpy__(ptr noundef %1, ptr noundef %9, i64 noundef %11, i64 noundef 3) #12
  %.not6 = icmp eq i32 %12, 0
  br i1 %.not6, label %13, label %14

13:                                               ; preds = %7, %2
  tail call void @ERR_new() #12
  tail call void @ERR_set_debug(ptr noundef nonnull @.str.1, i32 noundef 4314, ptr noundef nonnull @__func__.tls_construct_cert_status_body) #12
  tail call void (ptr, i32, i32, ptr, ...) @ossl_statem_fatal(ptr noundef nonnull %0, i32 noundef 80, i32 noundef 786691, ptr noundef null) #12
  br label %14

14:                                               ; preds = %7, %13
  %.0 = phi i32 [ 0, %13 ], [ 1, %7 ]
  ret i32 %.0
}